target datalayout = "e-m:e-p270:32:32-p271:32:32-p272:64:64-i64:64-i128:128-f80:128-n8:16:32:64-S128"
target triple = "x86_64-pc-linux-gnu"

%struct.mz_zip_archive_tag = type { i64, i64, i32, i32, i32, ptr, ptr, ptr, ptr, ptr, ptr, ptr, ptr }
%struct.mz_zip_internal_state_tag = type { %struct.mz_zip_array, %struct.mz_zip_array, %struct.mz_zip_array, ptr, ptr, i64, i64 }
%struct.mz_zip_array = type { ptr, i64, i64, i32 }

; Function Attrs: mustprogress nounwind uwtable
define internal void @_ZL13mz_write_le16Pht(ptr noundef %0, i16 noundef zeroext %1) #4 {
  %3 = alloca ptr, align 8
  %4 = alloca i16, align 2
  store ptr %0, ptr %3, align 8
  store i16 %1, ptr %4, align 2
  %5 = load i16, ptr %4, align 2
  %6 = trunc i16 %5 to i8
  %7 = load ptr, ptr %3, align 8
  %8 = getelementptr inbounds i8, ptr %7, i64 0
  store i8 %6, ptr %8, align 1
  %9 = load i16, ptr %4, align 2
  %10 = zext i16 %9 to i32
  %11 = ashr i32 %10, 8
  %12 = trunc i32 %11 to i8
  %13 = load ptr, ptr %3, align 8
  %14 = getelementptr inbounds i8, ptr %13, i64 1
  store i8 %12, ptr %14, align 1
  ret void
}

; Function Attrs: mustprogress nounwind uwtable
define internal void @_ZL13mz_write_le32Phj(ptr noundef %0, i32 noundef %1) #4 {
  %3 = alloca ptr, align 8
  %4 = alloca i32, align 4
  store ptr %0, ptr %3, align 8
  store i32 %1, ptr %4, align 4
  %5 = load i32, ptr %4, align 4
  %6 = trunc i32 %5 to i8
  %7 = load ptr, ptr %3, align 8
  %8 = getelementptr inbounds i8, ptr %7, i64 0
  store i8 %6, ptr %8, align 1
  %9 = load i32, ptr %4, align 4
  %10 = lshr i32 %9, 8
  %11 = trunc i32 %10 to i8
  %12 = load ptr, ptr %3, align 8
  %13 = getelementptr inbounds i8, ptr %12, i64 1
  store i8 %11, ptr %13, align 1
  %14 = load i32, ptr %4, align 4
  %15 = lshr i32 %14, 16
  %16 = trunc i32 %15 to i8
  %17 = load ptr, ptr %3, align 8
  %18 = getelementptr inbounds i8, ptr %17, i64 2
  store i8 %16, ptr %18, align 1
  %19 = load i32, ptr %4, align 4
  %20 = lshr i32 %19, 24
  %21 = trunc i32 %20 to i8
  %22 = load ptr, ptr %3, align 8
  %23 = getelementptr inbounds i8, ptr %22, i64 3
  store i8 %21, ptr %23, align 1
  ret void
}

; Function Attrs: mustprogress uwtable
define i32 @mz_zip_writer_finalize_archive(ptr noundef %0) #5 {
  %2 = alloca i32, align 4
  %3 = alloca ptr, align 8
  %4 = alloca ptr, align 8
  %5 = alloca i64, align 8
  %6 = alloca i64, align 8
  %7 = alloca [22 x i8], align 16
  store ptr %0, ptr %3, align 8
  %8 = load ptr, ptr %3, align 8
  %9 = icmp ne ptr %8, null
  br i1 %9, label %10, label %20

10:                                               ; preds = %1
  %11 = load ptr, ptr %3, align 8
  %12 = getelementptr inbounds %struct.mz_zip_archive_tag, ptr %11, i32 0, i32 12
  %13 = load ptr, ptr %12, align 8
  %14 = icmp ne ptr %13, null
  br i1 %14, label %15, label %20

15:                                               ; preds = %10
  %16 = load ptr, ptr %3, align 8
  %17 = getelementptr inbounds %struct.mz_zip_archive_tag, ptr %16, i32 0, i32 3
  %18 = load i32, ptr %17, align 4
  %19 = icmp ne i32 %18, 2
  br i1 %19, label %20, label %21

20:                                               ; preds = %15, %10, %1
  store i32 0, ptr %2, align 4
  br label %134

21:                                               ; preds = %15
  %22 = load ptr, ptr %3, align 8
  %23 = getelementptr inbounds %struct.mz_zip_archive_tag, ptr %22, i32 0, i32 12
  %24 = load ptr, ptr %23, align 8
  store ptr %24, ptr %4, align 8
  %25 = load ptr, ptr %3, align 8
  %26 = getelementptr inbounds %struct.mz_zip_archive_tag, ptr %25, i32 0, i32 2
  %27 = load i32, ptr %26, align 8
  %28 = icmp ugt i32 %27, 65535
  br i1 %28, label %40, label %29

29:                                               ; preds = %21
  %30 = load ptr, ptr %3, align 8
  %31 = getelementptr inbounds %struct.mz_zip_archive_tag, ptr %30, i32 0, i32 0
  %32 = load i64, ptr %31, align 8
  %33 = load ptr, ptr %4, align 8
  %34 = getelementptr inbounds %struct.mz_zip_internal_state_tag, ptr %33, i32 0, i32 0
  %35 = getelementptr inbounds %struct.mz_zip_array, ptr %34, i32 0, i32 1
  %36 = load i64, ptr %35, align 8
  %37 = add i64 %32, %36
  %38 = add i64 %37, 22
  %39 = icmp ugt i64 %38, 4294967295
  br i1 %39, label %40, label %41

40:                                               ; preds = %29, %21
  store i32 0, ptr %2, align 4
  br label %134

41:                                               ; preds = %29
  store i64 0, ptr %5, align 8
  store i64 0, ptr %6, align 8
  %42 = load ptr, ptr %3, align 8
  %43 = getelementptr inbounds %struct.mz_zip_archive_tag, ptr %42, i32 0, i32 2
  %44 = load i32, ptr %43, align 8
  %45 = icmp ne i32 %44, 0
  br i1 %45, label %46, label %79

46:                                               ; preds = %41
  %47 = load ptr, ptr %3, align 8
  %48 = getelementptr inbounds %struct.mz_zip_archive_tag, ptr %47, i32 0, i32 0
  %49 = load i64, ptr %48, align 8
  store i64 %49, ptr %5, align 8
  %50 = load ptr, ptr %4, align 8
  %51 = getelementptr inbounds %struct.mz_zip_internal_state_tag, ptr %50, i32 0, i32 0
  %52 = getelementptr inbounds %struct.mz_zip_array, ptr %51, i32 0, i32 1
  %53 = load i64, ptr %52, align 8
  store i64 %53, ptr %6, align 8
  %54 = load i64, ptr %5, align 8
  %55 = load ptr, ptr %3, align 8
  %56 = getelementptr inbounds %struct.mz_zip_archive_tag, ptr %55, i32 0, i32 1
  store i64 %54, ptr %56, align 8
  %57 = load ptr, ptr %3, align 8
  %58 = getelementptr inbounds %struct.mz_zip_archive_tag, ptr %57, i32 0, i32 10
  %59 = load ptr, ptr %58, align 8
  %60 = load ptr, ptr %3, align 8
  %61 = getelementptr inbounds %struct.mz_zip_archive_tag, ptr %60, i32 0, i32 11
  %62 = load ptr, ptr %61, align 8
  %63 = load i64, ptr %5, align 8
  %64 = load ptr, ptr %4, align 8
  %65 = getelementptr inbounds %struct.mz_zip_internal_state_tag, ptr %64, i32 0, i32 0
  %66 = getelementptr inbounds %struct.mz_zip_array, ptr %65, i32 0, i32 0
  %67 = load ptr, ptr %66, align 8
  %68 = load i64, ptr %6, align 8
  %69 = call noundef i64 %59(ptr noundef %62, i64 noundef %63, ptr noundef %67, i64 noundef %68)
  %70 = load i64, ptr %6, align 8
  %71 = icmp ne i64 %69, %70
  br i1 %71, label %72, label %73

72:                                               ; preds = %46
  store i32 0, ptr %2, align 4
  br label %134

73:                                               ; preds = %46
  %74 = load i64, ptr %6, align 8
  %75 = load ptr, ptr %3, align 8
  %76 = getelementptr inbounds %struct.mz_zip_archive_tag, ptr %75, i32 0, i32 0
  %77 = load i64, ptr %76, align 8
  %78 = add i64 %77, %74
  store i64 %78, ptr %76, align 8
  br label %79

79:                                               ; preds = %73, %41
  call void @llvm.memset.p0.i64(ptr align 16 %7, i8 0, i64 22, i1 false)
  %80 = getelementptr inbounds [22 x i8], ptr %7, i64 0, i64 0
  %81 = getelementptr inbounds i8, ptr %80, i64 0
  call void @_ZL13mz_write_le32Phj(ptr noundef %81, i32 noundef 101010256)
  %82 = getelementptr inbounds [22 x i8], ptr %7, i64 0, i64 0
  %83 = getelementptr inbounds i8, ptr %82, i64 8
  %84 = load ptr, ptr %3, align 8
  %85 = getelementptr inbounds %struct.mz_zip_archive_tag, ptr %84, i32 0, i32 2
  %86 = load i32, ptr %85, align 8
  %87 = trunc i32 %86 to i16
  call void @_ZL13mz_write_le16Pht(ptr noundef %83, i16 noundef zeroext %87)
  %88 = getelementptr inbounds [22 x i8], ptr %7, i64 0, i64 0
  %89 = getelementptr inbounds i8, ptr %88, i64 10
  %90 = load ptr, ptr %3, align 8
  %91 = getelementptr inbounds %struct.mz_zip_archive_tag, ptr %90, i32 0, i32 2
  %92 = load i32, ptr %91, align 8
  %93 = trunc i32 %92 to i16
  call void @_ZL13mz_write_le16Pht(ptr noundef %89, i16 noundef zeroext %93)
  %94 = getelementptr inbounds [22 x i8], ptr %7, i64 0, i64 0
  %95 = getelementptr inbounds i8, ptr %94, i64 12
  %96 = load i64, ptr %6, align 8
  %97 = trunc i64 %96 to i32
  call void @_ZL13mz_write_le32Phj(ptr noundef %95, i32 noundef %97)
  %98 = getelementptr inbounds [22 x i8], ptr %7, i64 0, i64 0
  %99 = getelementptr inbounds i8, ptr %98, i64 16
  %100 = load i64, ptr %5, align 8
  %101 = trunc i64 %100 to i32
  call void @_ZL13mz_write_le32Phj(ptr noundef %99, i32 noundef %101)
  %102 = load ptr, ptr %3, align 8
  %103 = getelementptr inbounds %struct.mz_zip_archive_tag, ptr %102, i32 0, i32 10
  %104 = load ptr, ptr %103, align 8
  %105 = load ptr, ptr %3, align 8
  %106 = getelementptr inbounds %struct.mz_zip_archive_tag, ptr %105, i32 0, i32 11
  %107 = load ptr, ptr %106, align 8
  %108 = load ptr, ptr %3, align 8
  %109 = getelementptr inbounds %struct.mz_zip_archive_tag, ptr %108, i32 0, i32 0
  %110 = load i64, ptr %109, align 8
  %111 = getelementptr inbounds [22 x i8], ptr %7, i64 0, i64 0
  %112 = call noundef i64 %104(ptr noundef %107, i64 noundef %110, ptr noundef %111, i64 noundef 22)
  %113 = icmp ne i64 %112, 22
  br i1 %113, label %114, label %115

114:                                              ; preds = %79
  store i32 0, ptr %2, align 4
  br label %134

115:                                              ; preds = %79
  %116 = load ptr, ptr %4, align 8
  %117 = getelementptr inbounds %struct.mz_zip_internal_state_tag, ptr %116, i32 0, i32 3
  %118 = load ptr, ptr %117, align 8
  %119 = icmp ne ptr %118, null
  br i1 %119, label %120, label %127

120:                                              ; preds = %115
  %121 = load ptr, ptr %4, align 8
  %122 = getelementptr inbounds %struct.mz_zip_internal_state_tag, ptr %121, i32 0, i32 3
  %123 = load ptr, ptr %122, align 8
  %124 = call i32 @fflush(ptr noundef %123)
  %125 = icmp eq i32 %124, -1
  br i1 %125, label %126, label %127

126:                                              ; preds = %120
  store i32 0, ptr %2, align 4
  br label %134

127:                                              ; preds = %120, %115
  %128 = load ptr, ptr %3, align 8
  %129 = getelementptr inbounds %struct.mz_zip_archive_tag, ptr %128, i32 0, i32 0
  %130 = load i64, ptr %129, align 8
  %131 = add i64 %130, 22
  store i64 %131, ptr %129, align 8
  %132 = load ptr, ptr %3, align 8
  %133 = getelementptr inbounds %struct.mz_zip_archive_tag, ptr %132, i32 0, i32 3
  store i32 3, ptr %133, align 4
  store i32 1, ptr %2, align 4
  br label %134

134:                                              ; preds = %127, %126, %114, %72, %40, %20
  %135 = load i32, ptr %2, align 4
  ret i32 %135
}