; Function Attrs: mustprogress uwtable
define noundef i32 @mz_zip_writer_finalize_archive(ptr noundef %0) local_unnamed_addr #9 {
  %2 = alloca [22 x i8], align 16
  %.not = icmp eq ptr %0, null
  br i1 %.not, label %80, label %3

3:                                                ; preds = %1
  %4 = getelementptr inbounds i8, ptr %0, i64 88
  %5 = load ptr, ptr %4, align 8
  %.not38 = icmp eq ptr %5, null
  br i1 %.not38, label %80, label %6

6:                                                ; preds = %3
  %7 = getelementptr inbounds i8, ptr %0, i64 20
  %8 = load i32, ptr %7, align 4
  %.not39 = icmp eq i32 %8, 2
  br i1 %.not39, label %9, label %80

9:                                                ; preds = %6
  %10 = getelementptr inbounds i8, ptr %0, i64 16
  %11 = load i32, ptr %10, align 8
  %12 = icmp ugt i32 %11, 65535
  br i1 %12, label %80, label %13

13:                                               ; preds = %9
  %14 = load i64, ptr %0, align 8
  %15 = getelementptr inbounds i8, ptr %5, i64 8
  %16 = load i64, ptr %15, align 8
  %17 = add i64 %14, -4294967274
  %18 = add i64 %17, %16
  %19 = icmp ult i64 %18, -4294967296
  br i1 %19, label %80, label %20

20:                                               ; preds = %13
  %.not40 = icmp eq i32 %11, 0
  br i1 %.not40, label %34, label %21

21:                                               ; preds = %20
  %22 = getelementptr inbounds i8, ptr %0, i64 8
  store i64 %14, ptr %22, align 8
  %23 = getelementptr inbounds i8, ptr %0, i64 72
  %24 = load ptr, ptr %23, align 8
  %25 = getelementptr inbounds i8, ptr %0, i64 80
  %26 = load ptr, ptr %25, align 8
  %27 = load ptr, ptr %5, align 8
  %28 = tail call noundef i64 %24(ptr noundef %26, i64 noundef %14, ptr noundef %27, i64 noundef %16)
  %.not41 = icmp eq i64 %28, %16
  br i1 %.not41, label %29, label %80

29:                                               ; preds = %21
  %30 = load i64, ptr %0, align 8
  %31 = add i64 %30, %16
  store i64 %31, ptr %0, align 8
  %32 = trunc i64 %16 to i32
  %33 = trunc i64 %14 to i32
  %.pre = load i32, ptr %10, align 8
  br label %34

34:                                               ; preds = %29, %20
  %35 = phi i64 [ %31, %29 ], [ %14, %20 ]
  %36 = phi i32 [ %.pre, %29 ], [ 0, %20 ]
  %.031 = phi i32 [ %33, %29 ], [ 0, %20 ]
  %.0 = phi i32 [ %32, %29 ], [ 0, %20 ]
  call void @llvm.memset.p0.i64(ptr noundef nonnull align 16 dereferenceable(22) %2, i8 0, i64 22, i1 false)
  store <4 x i8> <i8 80, i8 75, i8 5, i8 6>, ptr %2, align 16
  %37 = getelementptr inbounds i8, ptr %2, i64 8
  %38 = trunc i32 %36 to i8
  store i8 %38, ptr %37, align 8
  %39 = lshr i32 %36, 8
  %40 = trunc i32 %39 to i8
  %41 = getelementptr inbounds i8, ptr %2, i64 9
  store i8 %40, ptr %41, align 1
  %42 = getelementptr inbounds i8, ptr %2, i64 10
  store i8 %38, ptr %42, align 2
  %43 = getelementptr inbounds i8, ptr %2, i64 11
  store i8 %40, ptr %43, align 1
  %44 = getelementptr inbounds i8, ptr %2, i64 12
  %45 = trunc i32 %.0 to i8
  store i8 %45, ptr %44, align 4
  %46 = lshr i32 %.0, 8
  %47 = trunc i32 %46 to i8
  %48 = getelementptr inbounds i8, ptr %2, i64 13
  store i8 %47, ptr %48, align 1
  %49 = lshr i32 %.0, 16
  %50 = trunc i32 %49 to i8
  %51 = getelementptr inbounds i8, ptr %2, i64 14
  store i8 %50, ptr %51, align 2
  %52 = lshr i32 %.0, 24
  %53 = trunc i32 %52 to i8
  %54 = getelementptr inbounds i8, ptr %2, i64 15
  store i8 %53, ptr %54, align 1
  %55 = getelementptr inbounds i8, ptr %2, i64 16
  %56 = trunc i32 %.031 to i8
  store i8 %56, ptr %55, align 16
  %57 = lshr i32 %.031, 8
  %58 = trunc i32 %57 to i8
  %59 = getelementptr inbounds i8, ptr %2, i64 17
  store i8 %58, ptr %59, align 1
  %60 = lshr i32 %.031, 16
  %61 = trunc i32 %60 to i8
  %62 = getelementptr inbounds i8, ptr %2, i64 18
  store i8 %61, ptr %62, align 2
  %63 = lshr i32 %.031, 24
  %64 = trunc i32 %63 to i8
  %65 = getelementptr inbounds i8, ptr %2, i64 19
  store i8 %64, ptr %65, align 1
  %66 = getelementptr inbounds i8, ptr %0, i64 72
  %67 = load ptr, ptr %66, align 8
  %68 = getelementptr inbounds i8, ptr %0, i64 80
  %69 = load ptr, ptr %68, align 8
  %70 = call noundef i64 %67(ptr noundef %69, i64 noundef %35, ptr noundef nonnull %2, i64 noundef 22)
  %.not42 = icmp eq i64 %70, 22
  br i1 %.not42, label %71, label %80

71:                                               ; preds = %34
  %72 = getelementptr inbounds i8, ptr %5, i64 96
  %73 = load ptr, ptr %72, align 8
  %.not43 = icmp eq ptr %73, null
  br i1 %.not43, label %77, label %74

74:                                               ; preds = %71
  %75 = call i32 @fflush(ptr noundef nonnull %73)
  %76 = icmp eq i32 %75, -1
  br i1 %76, label %80, label %77

77:                                               ; preds = %74, %71
  %78 = load i64, ptr %0, align 8
  %79 = add i64 %78, 22
  store i64 %79, ptr %0, align 8
  store i32 3, ptr %7, align 4
  br label %80

80:                                               ; preds = %74, %34, %21, %9, %13, %1, %3, %6, %77
  %.032 = phi i32 [ 1, %77 ], [ 0, %6 ], [ 0, %3 ], [ 0, %1 ], [ 0, %13 ], [ 0, %9 ], [ 0, %21 ], [ 0, %34 ], [ 0, %74 ]
  ret i32 %.032
}